target datalayout = "e-m:e-p270:32:32-p271:32:32-p272:64:64-i64:64-i128:128-f80:128-n8:16:32:64-S128"
target triple = "x86_64-unknown-linux-gnu"

%"struct.generic_model_converter::entry" = type <{ %class.obj_ref, %class.obj_ref.0, i32, [4 x i8] }>
%class.obj_ref = type { ptr, ptr }
%class.obj_ref.0 = type { ptr, ptr }
%class.generic_model_converter = type { %class.model_converter.base, ptr, %"class.std::__cxx11::basic_string", %class.vector }
%class.model_converter.base = type <{ %class.converter.base, [4 x i8], ptr, i8 }>
%class.converter.base = type <{ ptr, i32 }>
%"class.std::__cxx11::basic_string" = type { %"struct.std::__cxx11::basic_string<char>::_Alloc_hider", i64, %union.anon }
%"struct.std::__cxx11::basic_string<char>::_Alloc_hider" = type { ptr }
%union.anon = type { i64, [8 x i8] }
%class.vector = type { ptr }
%class.model_converter = type <{ %class.converter.base, [4 x i8], ptr, i8, [7 x i8] }>
%class.vector.39 = type { ptr }
%class.ptr_vector.53 = type { %class.vector.54 }
%class.vector.54 = type { ptr }
%class.ast_pp_util = type { ptr, %class.obj_hashtable, %class.smt2_pp_environment_dbg, %class.stacked_value, %class.stacked_value, %class.stacked_value, %class.obj_mark, %class.ref_vector, %class.svector.19, %class.decl_collector }
%class.obj_hashtable = type { %class.core_hashtable.base.62, [4 x i8] }
%class.core_hashtable.base.62 = type <{ ptr, i32, i32, i32 }>
%class.smt2_pp_environment_dbg = type { %class.smt2_pp_environment, ptr, %class.arith_util, %class.bv_util, %class.array_util, %class.fpa_util, %class.seq_util, %"class.datatype::util", %"class.datalog::dl_decl_util" }
%class.smt2_pp_environment = type { ptr, %class.smt_renaming }
%class.smt_renaming = type { %class.map.63, %class.map.67 }
%class.map.63 = type { %class.table2map.64 }
%class.table2map.64 = type { %class.core_hashtable.65 }
%class.core_hashtable.65 = type <{ ptr, i32, i32, i32, [4 x i8] }>
%class.map.67 = type { %class.table2map.68 }
%class.table2map.68 = type { %class.core_hashtable.69 }
%class.core_hashtable.69 = type <{ ptr, i32, i32, i32, [4 x i8] }>
%class.arith_util = type { ptr, ptr }
%class.bv_util = type { %class.bv_recognizers, ptr, ptr }
%class.bv_recognizers = type { i32 }
%class.array_util = type { %class.array_recognizers, ptr }
%class.array_recognizers = type { i32 }
%class.fpa_util = type { ptr, ptr, i32, %class.arith_util, %class.bv_util }
%class.seq_util = type { ptr, ptr, ptr, i32, [4 x i8], %"class.seq_util::str", %"class.seq_util::rex" }
%"class.seq_util::str" = type <{ ptr, ptr, i32, [4 x i8] }>
%"class.seq_util::rex" = type { ptr, ptr, i32, %class.vector.71, %class.ref_vector, %"struct.seq_util::rex::info", %"struct.seq_util::rex::info" }
%class.vector.71 = type { ptr }
%"struct.seq_util::rex::info" = type { i32, i8, i32, i32 }
%"class.datatype::util" = type { ptr, i32, ptr, %class.obj_map.74, %class.obj_map.79, %class.obj_map.84, %class.obj_map.23, %class.obj_map.23, %class.obj_map.23, %class.obj_map.89, %class.obj_map.89, %class.obj_map.89, %class.ref_vector.94, %class.ref_vector_core.97, %class.ptr_vector.100, i32, %class.ptr_vector.40 }
%class.obj_map.74 = type { %class.core_hashtable.75 }
%class.core_hashtable.75 = type <{ ptr, i32, i32, i32, [4 x i8] }>
%class.obj_map.79 = type { %class.core_hashtable.80 }
%class.core_hashtable.80 = type <{ ptr, i32, i32, i32, [4 x i8] }>
%class.obj_map.84 = type { %class.core_hashtable.85 }
%class.core_hashtable.85 = type <{ ptr, i32, i32, i32, [4 x i8] }>
%class.obj_map.23 = type { %class.core_hashtable.24 }
%class.core_hashtable.24 = type <{ ptr, i32, i32, i32, [4 x i8] }>
%class.obj_map.89 = type { %class.core_hashtable.90 }
%class.core_hashtable.90 = type <{ ptr, i32, i32, i32, [4 x i8] }>
%class.ref_vector.94 = type { %class.ref_vector_core.95 }
%class.ref_vector_core.95 = type { %class.ref_manager_wrapper.96, %class.ptr_vector.53 }
%class.ref_manager_wrapper.96 = type { ptr }
%class.ref_vector_core.97 = type { %class.ptr_vector.98 }
%class.ptr_vector.98 = type { %class.vector.99 }
%class.vector.99 = type { ptr }
%class.ptr_vector.100 = type { %class.vector.101 }
%class.vector.101 = type { ptr }
%class.ptr_vector.40 = type { %class.vector.41 }
%class.vector.41 = type { ptr }
%"class.datalog::dl_decl_util" = type <{ ptr, %class.scoped_ptr, %class.scoped_ptr.102, i32, [4 x i8] }>
%class.scoped_ptr = type { ptr }
%class.scoped_ptr.102 = type { ptr }
%class.stacked_value = type { i32, %class.vector.103 }
%class.vector.103 = type { ptr }
%class.obj_mark = type { %struct.default_t2uint, %class.bit_vector }
%struct.default_t2uint = type { i8 }
%class.bit_vector = type { i32, i32, ptr }
%class.ref_vector = type { %class.ref_vector_core }
%class.ref_vector_core = type { %class.ref_manager_wrapper, %class.ptr_vector.72 }
%class.ref_manager_wrapper = type { ptr }
%class.ptr_vector.72 = type { %class.vector.73 }
%class.vector.73 = type { ptr }
%class.svector.19 = type { %class.vector.20 }
%class.vector.20 = type { ptr }
%class.decl_collector = type { ptr, %class.lim_svector, %class.lim_svector.105, %class.lim_svector.105, %class.ast_mark, %class.ref_vector.94, %class.svector.19, i32, i32, %"class.datatype::util", %class.array_util, i32, %class.ptr_vector.53 }
%class.lim_svector = type { %class.svector.104, %class.svector.19 }
%class.svector.104 = type { %class.vector.41 }
%class.lim_svector.105 = type { %class.svector.106, %class.svector.19 }
%class.svector.106 = type { %class.vector.39 }
%class.ast_mark = type { ptr, %class.obj_mark, %class.obj_mark.107 }
%class.obj_mark.107 = type { %"struct.ast_mark::decl2uint", %class.bit_vector }
%"struct.ast_mark::decl2uint" = type { i8 }

; Function Attrs: mustprogress nounwind uwtable
define linkonce_odr hidden noundef i32 @_ZNK6vectorIN23generic_model_converter5entryELb1EjE4sizeEv(ptr noundef nonnull align 8 dereferenceable(8) %this) #6 comdat align 2 {
entry:
  %retval = alloca i32, align 4
  %this.addr = alloca ptr, align 8
  store ptr %this, ptr %this.addr, align 8
  %this1 = load ptr, ptr %this.addr, align 8
  %m_data = getelementptr inbounds %class.vector, ptr %this1, i32 0, i32 0
  %0 = load ptr, ptr %m_data, align 8
  %cmp = icmp eq ptr %0, null
  br i1 %cmp, label %if.then, label %if.end

if.then:                                          ; preds = %entry
  store i32 0, ptr %retval, align 4
  br label %return

if.end:                                           ; preds = %entry
  %m_data2 = getelementptr inbounds %class.vector, ptr %this1, i32 0, i32 0
  %1 = load ptr, ptr %m_data2, align 8
  %arrayidx = getelementptr inbounds i32, ptr %1, i64 -1
  %2 = load i32, ptr %arrayidx, align 4
  store i32 %2, ptr %retval, align 4
  br label %return

return:                                           ; preds = %if.end, %if.then
  %3 = load i32, ptr %retval, align 4
  ret i32 %3
}

; Function Attrs: mustprogress nounwind uwtable
define linkonce_odr hidden noundef ptr @_ZNK7obj_refI4expr11ast_managerEcvPS0_Ev(ptr noundef nonnull align 8 dereferenceable(16) %this) #6 comdat align 2 {
entry:
  %this.addr = alloca ptr, align 8
  store ptr %this, ptr %this.addr, align 8
  %this1 = load ptr, ptr %this.addr, align 8
  %m_obj = getelementptr inbounds %class.obj_ref.0, ptr %this1, i32 0, i32 0
  %0 = load ptr, ptr %m_obj, align 8
  ret ptr %0
}

; Function Attrs: mustprogress nounwind uwtable
define linkonce_odr hidden noundef zeroext i1 @_ZNK7obj_refI4expr11ast_managerEcvbEv(ptr noundef nonnull align 8 dereferenceable(16) %this) #6 comdat align 2 {
entry:
  %this.addr = alloca ptr, align 8
  store ptr %this, ptr %this.addr, align 8
  %this1 = load ptr, ptr %this.addr, align 8
  %m_obj = getelementptr inbounds %class.obj_ref.0, ptr %this1, i32 0, i32 0
  %0 = load ptr, ptr %m_obj, align 8
  %cmp = icmp ne ptr %0, null
  ret i1 %cmp
}

; Function Attrs: mustprogress nounwind uwtable
define linkonce_odr hidden noundef ptr @_ZNK7obj_refI9func_decl11ast_managerEcvPS0_Ev(ptr noundef nonnull align 8 dereferenceable(16) %this) #6 comdat align 2 {
entry:
  %this.addr = alloca ptr, align 8
  store ptr %this, ptr %this.addr, align 8
  %this1 = load ptr, ptr %this.addr, align 8
  %m_obj = getelementptr inbounds %class.obj_ref, ptr %this1, i32 0, i32 0
  %0 = load ptr, ptr %m_obj, align 8
  ret ptr %0
}

; Function Attrs: mustprogress nounwind uwtable
define linkonce_odr hidden noundef ptr @_ZN6vectorIN23generic_model_converter5entryELb1EjE3endEv(ptr noundef nonnull align 8 dereferenceable(8) %this) #6 comdat align 2 {
entry:
  %this.addr = alloca ptr, align 8
  store ptr %this, ptr %this.addr, align 8
  %this1 = load ptr, ptr %this.addr, align 8
  %m_data = getelementptr inbounds %class.vector, ptr %this1, i32 0, i32 0
  %0 = load ptr, ptr %m_data, align 8
  %call = call noundef i32 @_ZNK6vectorIN23generic_model_converter5entryELb1EjE4sizeEv(ptr noundef nonnull align 8 dereferenceable(8) %this1)
  %idx.ext = zext i32 %call to i64
  %add.ptr = getelementptr inbounds %"struct.generic_model_converter::entry", ptr %0, i64 %idx.ext
  ret ptr %add.ptr
}

; Function Attrs: mustprogress nounwind uwtable
define linkonce_odr hidden noundef ptr @_ZN6vectorIN23generic_model_converter5entryELb1EjE5beginEv(ptr noundef nonnull align 8 dereferenceable(8) %this) #6 comdat align 2 {
entry:
  %this.addr = alloca ptr, align 8
  store ptr %this, ptr %this.addr, align 8
  %this1 = load ptr, ptr %this.addr, align 8
  %m_data = getelementptr inbounds %class.vector, ptr %this1, i32 0, i32 0
  %0 = load ptr, ptr %m_data, align 8
  ret ptr %0
}

; Function Attrs: mustprogress nounwind uwtable
define linkonce_odr hidden noundef nonnull align 8 dereferenceable(56) ptr @_ZN11ast_pp_util3envEv(ptr noundef nonnull align 8 dereferenceable(1232) %this) #6 comdat align 2 {
entry:
  %this.addr = alloca ptr, align 8
  store ptr %this, ptr %this.addr, align 8
  %this1 = load ptr, ptr %this.addr, align 8
  %m_env = getelementptr inbounds %class.ast_pp_util, ptr %this1, i32 0, i32 2
  ret ptr %m_env
}

; Function Attrs: mustprogress uwtable
define hidden void @_ZN23generic_model_converter7set_envEP11ast_pp_util(ptr noundef nonnull align 8 dereferenceable(80) %this, ptr noundef %visitor) unnamed_addr #4 align 2 {
entry:
  %this.addr = alloca ptr, align 8
  %visitor.addr = alloca ptr, align 8
  %__range2 = alloca ptr, align 8
  %__begin2 = alloca ptr, align 8
  %__end2 = alloca ptr, align 8
  %e = alloca ptr, align 8
  store ptr %this, ptr %this.addr, align 8
  store ptr %visitor, ptr %visitor.addr, align 8
  %this1 = load ptr, ptr %this.addr, align 8
  %0 = load ptr, ptr %visitor.addr, align 8
  %tobool = icmp ne ptr %0, null
  br i1 %tobool, label %if.else, label %if.then

if.then:                                          ; preds = %entry
  %m_env = getelementptr inbounds %class.model_converter, ptr %this1, i32 0, i32 2
  store ptr null, ptr %m_env, align 8
  br label %if.end11

if.else:                                          ; preds = %entry
  %1 = load ptr, ptr %visitor.addr, align 8
  %call = call noundef nonnull align 8 dereferenceable(56) ptr @_ZN11ast_pp_util3envEv(ptr noundef nonnull align 8 dereferenceable(1232) %1)
  %m_env2 = getelementptr inbounds %class.model_converter, ptr %this1, i32 0, i32 2
  store ptr %call, ptr %m_env2, align 8
  %m_entries = getelementptr inbounds %class.generic_model_converter, ptr %this1, i32 0, i32 3
  store ptr %m_entries, ptr %__range2, align 8
  %2 = load ptr, ptr %__range2, align 8
  %call3 = call noundef ptr @_ZN6vectorIN23generic_model_converter5entryELb1EjE5beginEv(ptr noundef nonnull align 8 dereferenceable(8) %2)
  store ptr %call3, ptr %__begin2, align 8
  %3 = load ptr, ptr %__range2, align 8
  %call4 = call noundef ptr @_ZN6vectorIN23generic_model_converter5entryELb1EjE3endEv(ptr noundef nonnull align 8 dereferenceable(8) %3)
  store ptr %call4, ptr %__end2, align 8
  br label %for.cond

for.cond:                                         ; preds = %for.inc, %if.else
  %4 = load ptr, ptr %__begin2, align 8
  %5 = load ptr, ptr %__end2, align 8
  %cmp = icmp ne ptr %4, %5
  br i1 %cmp, label %for.body, label %for.end

for.body:                                         ; preds = %for.cond
  %6 = load ptr, ptr %__begin2, align 8
  store ptr %6, ptr %e, align 8
  %7 = load ptr, ptr %visitor.addr, align 8
  %coll = getelementptr inbounds %class.ast_pp_util, ptr %7, i32 0, i32 9
  %8 = load ptr, ptr %e, align 8
  %m_f = getelementptr inbounds %"struct.generic_model_converter::entry", ptr %8, i32 0, i32 0
  %call5 = call noundef ptr @_ZNK7obj_refI9func_decl11ast_managerEcvPS0_Ev(ptr noundef nonnull align 8 dereferenceable(16) %m_f)
  call void @_ZN14decl_collector10visit_funcEP9func_decl(ptr noundef nonnull align 8 dereferenceable(464) %coll, ptr noundef %call5)
  %9 = load ptr, ptr %e, align 8
  %m_def = getelementptr inbounds %"struct.generic_model_converter::entry", ptr %9, i32 0, i32 1
  %call6 = call noundef zeroext i1 @_ZNK7obj_refI4expr11ast_managerEcvbEv(ptr noundef nonnull align 8 dereferenceable(16) %m_def)
  br i1 %call6, label %if.then7, label %if.end

if.then7:                                         ; preds = %for.body
  %10 = load ptr, ptr %visitor.addr, align 8
  %coll8 = getelementptr inbounds %class.ast_pp_util, ptr %10, i32 0, i32 9
  %11 = load ptr, ptr %e, align 8
  %m_def9 = getelementptr inbounds %"struct.generic_model_converter::entry", ptr %11, i32 0, i32 1
  %call10 = call noundef ptr @_ZNK7obj_refI4expr11ast_managerEcvPS0_Ev(ptr noundef nonnull align 8 dereferenceable(16) %m_def9)
  call void @_ZN14decl_collector5visitEP3ast(ptr noundef nonnull align 8 dereferenceable(464) %coll8, ptr noundef %call10)
  br label %if.end

if.end:                                           ; preds = %if.then7, %for.body
  br label %for.inc

for.inc:                                          ; preds = %if.end
  %12 = load ptr, ptr %__begin2, align 8
  %incdec.ptr = getelementptr inbounds %"struct.generic_model_converter::entry", ptr %12, i32 1
  store ptr %incdec.ptr, ptr %__begin2, align 8
  br label %for.cond

for.end:                                          ; preds = %for.cond
  br label %if.end11

if.end11:                                         ; preds = %for.end, %if.then
  ret void
}