; Function Attrs: mustprogress uwtable
define hidden void @_ZN23generic_model_converter7set_envEP11ast_pp_util(ptr nocapture noundef nonnull align 8 dereferenceable(80) %this, ptr noundef %visitor) unnamed_addr #3 align 2 {
entry:
  %tobool.not = icmp eq ptr %visitor, null
  br i1 %tobool.not, label %if.then, label %if.else

if.then:                                          ; preds = %entry
  %m_env = getelementptr inbounds i8, ptr %this, i64 16
  store ptr null, ptr %m_env, align 8
  br label %if.end11

if.else:                                          ; preds = %entry
  %m_env.i = getelementptr inbounds i8, ptr %visitor, i64 32
  %m_env2 = getelementptr inbounds i8, ptr %this, i64 16
  store ptr %m_env.i, ptr %m_env2, align 8
  %m_entries = getelementptr inbounds i8, ptr %this, i64 72
  %0 = load ptr, ptr %m_entries, align 8
  %cmp.i.i = icmp eq ptr %0, null
  br i1 %cmp.i.i, label %if.end11, label %_ZN6vectorIN23generic_model_converter5entryELb1EjE3endEv.exit

_ZN6vectorIN23generic_model_converter5entryELb1EjE3endEv.exit: ; preds = %if.else
  %arrayidx.i.i = getelementptr inbounds i8, ptr %0, i64 -4
  %1 = load i32, ptr %arrayidx.i.i, align 4
  %2 = zext i32 %1 to i64
  %add.ptr.i = getelementptr inbounds %"struct.generic_model_converter::entry", ptr %0, i64 %2
  %cmp.not9 = icmp eq i32 %1, 0
  br i1 %cmp.not9, label %if.end11, label %for.body.lr.ph

for.body.lr.ph:                                   ; preds = %_ZN6vectorIN23generic_model_converter5entryELb1EjE3endEv.exit
  %coll = getelementptr inbounds i8, ptr %visitor, i64 768
  br label %for.body

for.body:                                         ; preds = %for.body.lr.ph, %for.inc
  %__begin2.010 = phi ptr [ %0, %for.body.lr.ph ], [ %incdec.ptr, %for.inc ]
  %3 = load ptr, ptr %__begin2.010, align 8
  tail call void @_ZN14decl_collector10visit_funcEP9func_decl(ptr noundef nonnull align 8 dereferenceable(464) %coll, ptr noundef %3)
  %m_def = getelementptr inbounds i8, ptr %__begin2.010, i64 16
  %4 = load ptr, ptr %m_def, align 8
  %cmp.i.not = icmp eq ptr %4, null
  br i1 %cmp.i.not, label %for.inc, label %if.then7

if.then7:                                         ; preds = %for.body
  tail call void @_ZN14decl_collector5visitEP3ast(ptr noundef nonnull align 8 dereferenceable(464) %coll, ptr noundef nonnull %4)
  br label %for.inc

for.inc:                                          ; preds = %for.body, %if.then7
  %incdec.ptr = getelementptr inbounds i8, ptr %__begin2.010, i64 40
  %cmp.not = icmp eq ptr %incdec.ptr, %add.ptr.i
  br i1 %cmp.not, label %if.end11, label %for.body

if.end11:                                         ; preds = %for.inc, %if.else, %_ZN6vectorIN23generic_model_converter5entryELb1EjE3endEv.exit, %if.then
  ret void
}